; Function Attrs: nounwind uwtable
define ptr @l_Std_Time_Duration_instHSubPlainTime(ptr noundef %0, ptr noundef readonly captures(none) %1) local_unnamed_addr #0 {
  %3 = getelementptr inbounds nuw i8, ptr %1, i64 8
  %4 = load ptr, ptr %3, align 8, !tbaa !4
  %5 = load ptr, ptr @l_Std_Time_Duration_ofNanoseconds___closed__1, align 8, !tbaa !4
  %6 = ptrtoint ptr %4 to i64
  %7 = and i64 %6, 1
  %.not.i24 = icmp eq i64 %7, 0
  br i1 %.not.i24, label %.critedge.i, label %8, !prof !8

8:                                                ; preds = %2
  %9 = ptrtoint ptr %5 to i64
  %10 = and i64 %9, 1
  %.not7.i = icmp eq i64 %10, 0
  br i1 %.not7.i, label %.critedge.i, label %11, !prof !8

11:                                               ; preds = %8
  %12 = shl i64 %6, 31
  %13 = ashr i64 %12, 32
  %14 = shl i64 %9, 31
  %15 = ashr i64 %14, 32
  %16 = mul nsw i64 %15, %13
  %17 = add nsw i64 %16, 2147483648
  %18 = icmp ult i64 %17, 4294967296
  br i1 %18, label %19, label %24, !prof !14

19:                                               ; preds = %11
  %20 = shl nsw i64 %16, 1
  %21 = and i64 %20, 8589934590
  %22 = or disjoint i64 %21, 1
  %23 = inttoptr i64 %22 to ptr
  br label %lean_int_mul.exit

24:                                               ; preds = %11
  %25 = tail call ptr @lean_big_int64_to_int(i64 noundef range(i64 -4611686016279904256, 4611686018427387905) %16) #3
  br label %lean_int_mul.exit

.critedge.i:                                      ; preds = %8, %2
  %26 = tail call ptr @lean_int_big_mul(ptr noundef %4, ptr noundef %5) #3
  br label %lean_int_mul.exit

lean_int_mul.exit:                                ; preds = %19, %24, %.critedge.i
  %.0.i = phi ptr [ %26, %.critedge.i ], [ %23, %19 ], [ %25, %24 ]
  %27 = getelementptr inbounds nuw i8, ptr %1, i64 16
  %28 = load ptr, ptr %27, align 8, !tbaa !4
  %29 = ptrtoint ptr %.0.i to i64
  %30 = and i64 %29, 1
  %.not.i25 = icmp eq i64 %30, 0
  br i1 %.not.i25, label %50, label %31, !prof !8

31:                                               ; preds = %lean_int_mul.exit
  %32 = ptrtoint ptr %28 to i64
  %33 = and i64 %32, 1
  %.not7.i26 = icmp eq i64 %33, 0
  br i1 %.not7.i26, label %lean_int_add.exit.thread35, label %35, !prof !8

lean_int_add.exit.thread35:                       ; preds = %31
  %34 = tail call ptr @lean_int_big_add(ptr noundef %.0.i, ptr noundef %28) #3
  br label %lean_dec.exit17

35:                                               ; preds = %31
  %36 = shl i64 %29, 31
  %37 = ashr i64 %36, 32
  %38 = shl i64 %32, 31
  %39 = ashr i64 %38, 32
  %40 = add nsw i64 %39, %37
  %41 = add nsw i64 %40, 2147483648
  %42 = icmp ult i64 %41, 4294967296
  br i1 %42, label %43, label %48, !prof !14

43:                                               ; preds = %35
  %44 = shl nsw i64 %40, 1
  %45 = and i64 %44, 8589934590
  %46 = or disjoint i64 %45, 1
  %47 = inttoptr i64 %46 to ptr
  br label %lean_dec.exit17

48:                                               ; preds = %35
  %49 = tail call ptr @lean_big_int64_to_int(i64 noundef range(i64 -4611686016279904256, 4611686018427387905) %40) #3
  br label %lean_dec.exit17

50:                                               ; preds = %lean_int_mul.exit
  %51 = tail call ptr @lean_int_big_add(ptr noundef %.0.i, ptr noundef %28) #3
  %52 = load i32, ptr %.0.i, align 4, !tbaa !9
  %53 = icmp sgt i32 %52, 1
  br i1 %53, label %54, label %56, !prof !14

54:                                               ; preds = %50
  %55 = add nsw i32 %52, -1
  store i32 %55, ptr %.0.i, align 4, !tbaa !9
  br label %lean_dec.exit17

56:                                               ; preds = %50
  %.not.i = icmp eq i32 %52, 0
  br i1 %.not.i, label %lean_dec.exit17, label %57

57:                                               ; preds = %56
  tail call void @lean_dec_ref_cold(ptr noundef nonnull %.0.i) #3
  br label %lean_dec.exit17

lean_dec.exit17:                                  ; preds = %48, %43, %57, %56, %54, %lean_int_add.exit.thread35
  %.0.i2734 = phi ptr [ %34, %lean_int_add.exit.thread35 ], [ %51, %54 ], [ %51, %56 ], [ %51, %57 ], [ %49, %48 ], [ %47, %43 ]
  %58 = tail call ptr @l_Std_Time_PlainTime_toNanoseconds(ptr noundef %0) #3
  %59 = ptrtoint ptr %.0.i2734 to i64
  %60 = and i64 %59, 1
  %.not.i29 = icmp eq i64 %60, 0
  %.pre40 = ptrtoint ptr %58 to i64
  %.pre = and i64 %.pre40, 1
  %61 = icmp eq i64 %.pre, 0
  br i1 %.not.i29, label %lean_int_sub.exit, label %62, !prof !8

62:                                               ; preds = %lean_dec.exit17
  br i1 %61, label %lean_int_sub.exit.thread44, label %64, !prof !8

lean_int_sub.exit.thread44:                       ; preds = %62
  %63 = tail call ptr @lean_int_big_sub(ptr noundef %.0.i2734, ptr noundef %58) #3
  br label %80

64:                                               ; preds = %62
  %65 = shl i64 %59, 31
  %66 = ashr i64 %65, 32
  %67 = shl i64 %.pre40, 31
  %68 = ashr i64 %67, 32
  %69 = sub nsw i64 %66, %68
  %70 = add nsw i64 %69, 2147483648
  %71 = icmp ult i64 %70, 4294967296
  br i1 %71, label %72, label %77, !prof !14

72:                                               ; preds = %64
  %73 = shl nsw i64 %69, 1
  %74 = and i64 %73, 8589934590
  %75 = or disjoint i64 %74, 1
  %76 = inttoptr i64 %75 to ptr
  br label %lean_dec.exit15

77:                                               ; preds = %64
  %78 = tail call ptr @lean_big_int64_to_int(i64 noundef range(i64 -4611686016279904256, 4611686018427387905) %69) #3
  br label %lean_dec.exit15

lean_int_sub.exit:                                ; preds = %lean_dec.exit17
  %79 = tail call ptr @lean_int_big_sub(ptr noundef %.0.i2734, ptr noundef %58) #3
  br i1 %61, label %80, label %lean_dec.exit16.thread

80:                                               ; preds = %lean_int_sub.exit.thread44, %lean_int_sub.exit
  %81 = phi ptr [ %63, %lean_int_sub.exit.thread44 ], [ %79, %lean_int_sub.exit ]
  %82 = load i32, ptr %58, align 4, !tbaa !9
  %83 = icmp sgt i32 %82, 1
  br i1 %83, label %84, label %86, !prof !14

84:                                               ; preds = %80
  %85 = add nsw i32 %82, -1
  store i32 %85, ptr %58, align 4, !tbaa !9
  br label %lean_dec.exit16

86:                                               ; preds = %80
  %.not.i18 = icmp eq i32 %82, 0
  br i1 %.not.i18, label %lean_dec.exit16, label %87

87:                                               ; preds = %86
  tail call void @lean_dec_ref_cold(ptr noundef nonnull %58) #3
  br label %lean_dec.exit16

lean_dec.exit16:                                  ; preds = %87, %86, %84
  br i1 %.not.i29, label %lean_dec.exit16.thread, label %lean_dec.exit15

lean_dec.exit16.thread:                           ; preds = %lean_int_sub.exit, %lean_dec.exit16
  %.0.i314348 = phi ptr [ %81, %lean_dec.exit16 ], [ %79, %lean_int_sub.exit ]
  %88 = load i32, ptr %.0.i2734, align 4, !tbaa !9
  %89 = icmp sgt i32 %88, 1
  br i1 %89, label %90, label %92, !prof !14

90:                                               ; preds = %lean_dec.exit16.thread
  %91 = add nsw i32 %88, -1
  store i32 %91, ptr %.0.i2734, align 4, !tbaa !9
  br label %lean_dec.exit15

92:                                               ; preds = %lean_dec.exit16.thread
  %.not.i20 = icmp eq i32 %88, 0
  br i1 %.not.i20, label %lean_dec.exit15, label %93

93:                                               ; preds = %92
  tail call void @lean_dec_ref_cold(ptr noundef nonnull %.0.i2734) #3
  br label %lean_dec.exit15

lean_dec.exit15:                                  ; preds = %72, %77, %93, %92, %90, %lean_dec.exit16
  %.0.i314347 = phi ptr [ %.0.i314348, %93 ], [ %.0.i314348, %92 ], [ %.0.i314348, %90 ], [ %81, %lean_dec.exit16 ], [ %78, %77 ], [ %76, %72 ]
  %94 = tail call ptr @l_Std_Time_PlainTime_ofNanoseconds(ptr noundef %.0.i314347) #3
  %95 = ptrtoint ptr %.0.i314347 to i64
  %96 = and i64 %95, 1
  %.not37 = icmp eq i64 %96, 0
  br i1 %.not37, label %97, label %lean_dec.exit

97:                                               ; preds = %lean_dec.exit15
  %98 = load i32, ptr %.0.i314347, align 4, !tbaa !9
  %99 = icmp sgt i32 %98, 1
  br i1 %99, label %100, label %102, !prof !14

100:                                              ; preds = %97
  %101 = add nsw i32 %98, -1
  store i32 %101, ptr %.0.i314347, align 4, !tbaa !9
  br label %lean_dec.exit

102:                                              ; preds = %97
  %.not.i22 = icmp eq i32 %98, 0
  br i1 %.not.i22, label %lean_dec.exit, label %103

103:                                              ; preds = %102
  tail call void @lean_dec_ref_cold(ptr noundef nonnull %.0.i314347) #3
  br label %lean_dec.exit

lean_dec.exit:                                    ; preds = %103, %102, %100, %lean_dec.exit15
  ret ptr %94
}